(dp0
S'thresh'
p1
F0.02298266696537182
sS'mat'
p2
(lp3
(lp4
F-9.479236606477862
aF-3.937340750201309
aF-3.2225582606692185
aF-3.049361053210148
aF-6.052560139514722
aF-4.70092667273324
aF-3.996047175007845
aF-6.762621042516729
aF-3.2475493837255267
aF-7.069679393931649
aF-4.512564435802722
aF-2.5003016016070303
aF-3.645086340260609
aF-1.5711222547949126
aF-8.000568925226956
aF-3.8954977852662123
aF-9.822181357604693
aF-2.302908090811071
aF-2.348983145677939
aF-1.9463367255145152
aF-4.541518926295376
aF-3.8734345401818646
aF-4.712386552583159
aF-6.560594414643442
aF-3.6501012535478563
aF-6.646023262421646
aF-10.610638717968962
aF-10.610638717968962
aF-10.610638717968962
aF-10.610638717968962
aF-10.515328538164638
aF-10.515328538164638
aF-10.610638717968962
aF-10.610638717968962
aF-10.610638717968962
aF-10.610638717968962
aF-7.018820976698158
aF-2.713751250937537
aa(lp5
F-2.554885953534808
aF-5.143053013203518
aF-6.080545952728277
aF-6.28452900630341
aF-1.1751829947562595
aF-8.806614659333164
aF-8.90192483913749
aF-8.639560574669998
aF-3.334726029601389
aF-5.0060312156392275
aF-8.806614659333164
aF-2.140815140496837
aF-6.123105567147072
aF-6.887021818595225
aF-2.14743729655857
aF-8.719603282343535
aF-8.90192483913749
aF-2.7208735242441406
aF-3.791142596436295
aF-4.706227782655101
aF-2.1388485715247962
aF-6.321708009545164
aF-7.708002370665055
aF-8.90192483913749
aF-2.362627942634421
aF-8.90192483913749
aF-8.90192483913749
aF-8.90192483913749
aF-8.90192483913749
aF-8.90192483913749
aF-8.90192483913749
aF-8.90192483913749
aF-8.90192483913749
aF-8.90192483913749
aF-8.90192483913749
aF-8.90192483913749
aF-7.197176746899064
aF-4.739921628441574
aa(lp6
F-2.0905083985440145
aF-9.58137275287716
aF-3.848031475979414
aF-7.679265226480239
aF-1.7398798284171466
aF-8.792915392512889
aF-9.58137275287716
aF-1.9101982403497455
aF-2.9343330981169893
aF-9.486062573072834
aF-3.344416250791206
aF-3.2778384452605662
aF-8.551753335696
aF-8.939518866704764
aF-1.6008701514219672
aF-9.486062573072834
aF-6.3867896205780035
aF-3.37843245932265
aF-5.848476413346449
aF-2.392280489003082
aF-3.219207090097353
aF-9.58137275287716
aF-8.993586087975041
aF-9.58137275287716
aF-4.622030753168454
aF-8.328609784381792
aF-9.58137275287716
aF-9.244900516255946
aF-9.486062573072834
aF-9.111369123631423
aF-9.58137275287716
aF-9.58137275287716
aF-9.58137275287716
aF-9.58137275287716
aF-9.58137275287716
aF-9.58137275287716
aF-8.077295356100885
aF-3.8696221085717815
aa(lp7
F-3.7337861182569707
aF-8.734677120878548
aF-8.567623036215382
aF-4.5701282999832
aF-1.9711421930707442
aF-7.125239208444448
aF-5.435478907171515
aF-7.038227831454818
aF-2.4650644416018133
aF-6.277941348057245
aF-7.666836490877192
aF-4.5781642685408395
aF-5.53786101407508
aF-6.082716386427382
aF-3.1204436755916007
aF-9.09569046641588
aF-8.153647238439309
aF-3.626530215158797
aF-3.706023321279614
aF-7.874475855655437
aF-3.9979471816397583
aF-5.571890762661391
aF-7.39490277539355
aF-9.928599589350982
aF-4.6168725358930285
aF-9.746278032557028
aF-9.928599589350982
aF-9.928599589350982
aF-9.833289409546659
aF-9.928599589350982
aF-9.928599589350982
aF-9.928599589350982
aF-9.928599589350982
aF-9.928599589350982
aF-9.928599589350982
aF-9.928599589350982
aF-5.4871254960336815
aF-0.5400544563010578
aa(lp8
F-3.1012417073543985
aF-6.400127024276941
aF-3.720544954467124
aF-2.4160070397687714
aF-3.7328034128033685
aF-4.5700216362331325
aF-4.961730079060939
aF-6.407020207652255
aF-4.476759830264069
aF-8.214716269143123
aF-7.050060568158021
aF-3.442144514849056
aF-3.751790018791395
aF-2.3900142281818813
aF-5.296945537058843
aF-4.435054944849608
aF-6.269667075801774
aF-1.9768388449866394
aF-2.5215116314178005
aF-3.752762781514017
aF-6.058481036340099
aF-4.116163705520816
aF-4.733476179807431
aF-4.451416929391281
aF-4.5378057481547875
aF-7.731992677897827
aF-11.02411896450562
aF-10.330971783945675
aF-10.49349071344345
aF-10.761754700038129
aF-10.761754700038129
aF-10.841797407711665
aF-10.761754700038129
aF-10.554115335259883
aF-10.436332299603501
aF-10.49349071344345
aF-5.952702198149505
aF-1.1295662086520848
aa(lp9
F-2.7687216592321247
aF-8.036037077440882
aF-9.371038144173221
aF-9.275727964368897
aF-2.453233529338083
aF-2.9283387547128865
aF-9.10867387970573
aF-8.965573036065058
aF-2.45234292515275
aF-9.10867387970573
aF-8.840409893111051
aF-3.74991290319803
aF-9.10867387970573
aF-7.741797604442942
aF-1.905669079926335
aF-9.371038144173221
aF-9.371038144173221
aF-2.3587426859171607
aF-6.11294160615174
aF-3.318478497705429
aF-3.506838948111116
aF-9.371038144173221
aF-7.912423121473705
aF-9.371038144173221
aF-6.140233748439747
aF-9.371038144173221
aF-9.371038144173221
aF-9.188716587379266
aF-9.188716587379266
aF-8.677890963613276
aF-9.188716587379266
aF-9.188716587379266
aF-9.188716587379266
aF-9.371038144173221
aF-9.371038144173221
aF-9.371038144173221
aF-5.892879721374938
aF-0.9991250924160551
aa(lp10
F-2.6857970452542244
aF-8.88693014694155
aF-9.149294411409041
aF-7.134391390866777
aF-1.9651202522538342
aF-8.407357066679664
aF-4.635143623808119
aF-2.223993953211156
aF-2.863296316900177
aF-9.149294411409041
aF-8.679290782163307
aF-3.360558230872677
aF-6.124003335613506
aF-3.7439179725675973
aF-2.8346599989197254
aF-8.88693014694155
aF-9.149294411409041
aF-2.5610559283987038
aF-4.087332490147445
aF-5.194211916520448
aF-3.496103722868901
aF-9.149294411409041
aF-7.868360565946977
aF-9.149294411409041
aF-5.89119787338756
aF-8.88693014694155
aF-9.149294411409041
aF-8.966972854615086
aF-9.149294411409041
aF-9.149294411409041
aF-9.149294411409041
aF-9.149294411409041
aF-9.149294411409041
aF-9.149294411409041
aF-9.149294411409041
aF-9.149294411409041
aF-5.353805222236847
aF-1.0315345558692497
aa(lp11
F-1.8961448551710507
aF-7.50470617297538
aF-8.167269930163245
aF-7.575475243863587
aF-0.7290919492370405
aF-7.913281703497937
aF-10.188215265161473
aF-9.25390602778464
aF-1.9964500686011062
aF-10.188215265161473
aF-7.913281703497937
aF-6.648574332877416
aF-6.274375728806929
aF-6.716813624826068
aF-2.56244282516761
aF-9.590378264405851
aF-10.101203888171844
aF-4.5760830094781095
aF-6.252830909820153
aF-3.7697020382781514
aF-4.622650471320873
aF-9.641671558793403
aF-7.480165064059262
aF-10.283525444965797
aF-5.030205444348496
aF-10.188215265161473
aF-10.283525444965797
aF-9.947053208344585
aF-10.188215265161473
aF-10.283525444965797
aF-10.283525444965797
aF-10.283525444965797
aF-10.283525444965797
aF-10.283525444965797
aF-10.283525444965797
aF-10.283525444965797
aF-6.94420346702173
aF-2.3627883899555253
aa(lp12
F-3.7152651992388415
aF-4.720255072216346
aF-2.7844874451739114
aF-3.2224077986278723
aF-3.168662324774192
aF-3.9067347107307993
aF-3.6812250024999202
aF-9.170923639612392
aF-6.425003164454771
aF-10.323603149550777
aF-5.241164123325538
aF-3.080209314696004
aF-3.1744060909730543
aF-1.3130357279823046
aF-2.6647069769801197
aF-4.933770674166967
aF-7.895854913602725
aF-3.410197199059825
aF-2.0527368449044063
aF-2.102303429813413
aF-6.511400479404841
aF-3.8171964631649646
aF-9.97529645528256
aF-6.1686339655122415
aF-10.410614526540407
aF-5.512096530564857
aF-10.50592470634473
aF-9.918138041442612
aF-10.323603149550777
aF-10.50592470634473
aF-10.50592470634473
aF-10.50592470634473
aF-10.50592470634473
aF-10.50592470634473
aF-10.50592470634473
aF-10.50592470634473
aF-7.51019243279074
aF-3.7888457885393025
aa(lp13
F-2.359035872116558
aF-6.1186843971187015
aF-6.05414587598113
aF-6.524149505226866
aF-1.4316270516584262
aF-6.261785240759375
aF-6.187677268605653
aF-6.341827948432911
aF-5.530897732216583
aF-6.524149505226866
aF-6.261785240759375
aF-6.428839325422541
aF-6.341827948432911
aF-6.524149505226866
aF-1.2946464546791892
aF-6.428839325422541
aF-6.341827948432911
aF-6.1186843971187015
aF-6.1186843971187015
aF-6.261785240759375
aF-1.1165294037883793
aF-6.524149505226866
aF-6.261785240759375
aF-6.524149505226866
aF-6.524149505226866
aF-6.524149505226866
aF-6.524149505226866
aF-6.524149505226866
aF-6.524149505226866
aF-6.524149505226866
aF-6.524149505226866
aF-6.524149505226866
aF-6.524149505226866
aF-6.524149505226866
aF-6.524149505226866
aF-6.524149505226866
aF-6.524149505226866
aF-4.875490879639485
aa(lp14
F-3.6404680507527423
aF-7.49297692864848
aF-6.2890041243225445
aF-7.744291356929387
aF-1.215915815579739
aF-6.376015501312175
aF-6.949361482059499
aF-3.651137980077439
aF-1.7904915912074184
aF-8.0807635935506
aF-7.985453413746274
aF-3.9094579901923705
aF-6.1348534444952865
aF-2.3591412007660675
aF-3.8481074155309867
aF-7.898442036756645
aF-7.985453413746274
aF-5.539161600086054
aF-3.010602320140317
aF-6.98215130488249
aF-3.7500302532642684
aF-7.29230623318633
aF-5.508151363343494
aF-8.0807635935506
aF-4.689616547741946
aF-8.0807635935506
aF-8.0807635935506
aF-8.0807635935506
aF-8.0807635935506
aF-8.0807635935506
aF-8.0807635935506
aF-8.0807635935506
aF-8.0807635935506
aF-8.0807635935506
aF-8.0807635935506
aF-8.0807635935506
aF-5.19596288070389
aF-1.4322973125190255
aa(lp15
F-2.2704552046965474
aF-6.68574883601715
aF-5.77354808939452
aF-2.8636951959265327
aF-1.785049892469342
aF-4.154646898637377
aF-6.898740015867341
aF-7.938511804512518
aF-2.176190916273224
aF-9.789111773763507
aF-4.977666789958968
aF-2.067078353771214
aF-5.073050936995842
aF-6.534517866293227
aF-2.451997318999053
aF-5.625976380665304
aF-9.789111773763507
aF-5.667859758621481
aF-3.8889653851903114
aF-3.874135652219261
aF-3.822731961570352
aF-5.096097224481893
aF-5.4875067064001986
aF-9.88442195356783
aF-2.3341814088279764
aF-8.603488108105767
aF-9.88442195356783
aF-9.88442195356783
aF-9.88442195356783
aF-9.88442195356783
aF-9.88442195356783
aF-9.88442195356783
aF-9.88442195356783
aF-9.88442195356783
aF-9.88442195356783
aF-9.88442195356783
aF-6.193045619255307
aF-2.044030264175453
aa(lp16
F-1.7565727347005091
aF-3.686945912975107
aF-6.577317670871272
aF-8.846001212189636
aF-1.3668270606662218
aF-6.448105939391265
aF-9.33847769728743
aF-9.02832276898359
aF-2.441231996417153
aF-9.251466320297801
aF-8.903159626029584
aF-6.218920073621093
aF-3.6422998220164486
aF-5.68193362381643
aF-2.22934123150025
aF-2.6994340575290137
aF-9.433787877091754
aF-5.5098363007983355
aF-3.5421436652659843
aF-7.354346335411919
aF-3.469694526779905
aF-9.251466320297801
aF-8.558319139737856
aF-9.433787877091754
aF-3.42620394810389
aF-9.433787877091754
aF-9.433787877091754
aF-9.33847769728743
aF-9.433787877091754
aF-9.433787877091754
aF-9.433787877091754
aF-9.433787877091754
aF-9.433787877091754
aF-9.433787877091754
aF-9.433787877091754
aF-9.433787877091754
aF-6.298293661162606
aF-1.8977439898981692
aa(lp17
F-3.421320135505209
aF-6.776066847255602
aF-3.0940067084137204
aF-1.74107051341146
aF-2.502608402389292
aF-4.824624180630563
aF-2.114254831751207
aF-6.880888133997693
aF-3.301495697251832
aF-6.260398599013823
aF-4.918934860101804
aF-4.653863446237684
aF-6.024009820949592
aF-4.669981011258753
aF-2.878369263428411
aF-7.766652275212692
aF-6.867501053215234
aF-7.24026213490559
aF-3.0570043160104436
aF-2.2680118672100447
aF-4.908380672423114
aF-5.35167263990344
aF-7.341769081247427
aF-7.454755944640317
aF-4.5498701438598985
aF-8.808106150040853
aF-10.494505103611083
aF-10.399194923806757
aF-10.399194923806757
aF-10.494505103611083
aF-10.494505103611083
aF-10.494505103611083
aF-10.399194923806757
aF-10.494505103611083
aF-10.494505103611083
aF-10.494505103611083
aF-6.034360689673249
aF-1.4661183561242468
aa(lp18
F-5.1020497636117055
aF-5.149406266457336
aF-4.288221063505418
aF-4.0925144449665085
aF-5.76690711163472
aF-2.175669863294416
aF-5.290471257701464
aF-6.099722429286972
aF-4.4762143966048145
aF-6.920280728632277
aF-4.433397142450821
aF-3.228371567926321
aF-2.8238714568225975
aF-1.769034936374741
aF-3.5201393132773253
aF-3.957676945620904
aF-8.986615922806813
aF-2.1668042734085686
aF-3.3785186982850193
aF-3.126245265258649
aF-2.2105128508440415
aF-3.5467266586383777
aF-3.141020470490473
aF-6.6634115426100315
aF-5.520229190176107
aF-7.72791821879163
aF-10.555231840720658
aF-10.555231840720658
aF-10.459921660916333
aF-10.555231840720658
aF-10.555231840720658
aF-10.555231840720658
aF-10.555231840720658
aF-10.555231840720658
aF-10.555231840720658
aF-10.555231840720658
aF-6.405767979277478
aF-2.2134878747559683
aa(lp19
F-2.137648051783024
aF-7.738822463921142
aF-6.530209280038704
aF-8.60965082171854
aF-1.7358545673279888
aF-6.523288837194131
aF-7.786450512910397
aF-3.6464177665168687
aF-2.655686246865773
aF-9.102127306816335
aF-7.862436419888319
aF-2.3866337337149726
aF-6.364224142564443
aF-7.31036783758828
aF-2.1173268151564177
aF-2.7920437529923836
aF-9.19743748662066
aF-1.7880587946373312
aF-3.8565396725375045
aF-3.2978141431782575
aF-3.1982528164975395
aF-9.19743748662066
aF-7.130574727147684
aF-9.19743748662066
aF-4.988277249969977
aF-9.19743748662066
aF-9.19743748662066
aF-9.19743748662066
aF-9.19743748662066
aF-9.19743748662066
aF-9.19743748662066
aF-9.19743748662066
aF-9.19743748662066
aF-9.19743748662066
aF-9.19743748662066
aF-9.19743748662066
aF-7.081181971818107
aF-2.9384298009017833
aa(lp20
F-6.204759762367377
aF-6.204759762367377
aF-6.204759762367377
aF-6.204759762367377
aF-6.204759762367377
aF-6.204759762367377
aF-6.204759762367377
aF-6.204759762367377
aF-6.204759762367377
aF-6.204759762367377
aF-6.204759762367377
aF-6.204759762367377
aF-6.204759762367377
aF-6.204759762367377
aF-6.204759762367377
aF-6.204759762367377
aF-6.204759762367377
aF-6.204759762367377
aF-6.204759762367377
aF-6.204759762367377
aF-0.0796388304467218
aF-6.204759762367377
aF-6.204759762367377
aF-6.204759762367377
aF-6.204759762367377
aF-6.204759762367377
aF-6.204759762367377
aF-6.204759762367377
aF-6.204759762367377
aF-6.204759762367377
aF-6.204759762367377
aF-6.204759762367377
aF-6.204759762367377
aF-6.204759762367377
aF-6.204759762367377
aF-6.204759762367377
aF-6.204759762367377
aF-5.562905876194983
aa(lp21
F-2.576369770386265
aF-6.020533187931864
aF-4.324445300752761
aF-3.7326903766750217
aF-1.423184840836402
aF-5.368179772841656
aF-4.336193967324646
aF-6.073396677488931
aF-2.368432985321224
aF-9.985419682917078
aF-4.852145437362723
aF-4.683893185428093
aF-3.748630834793739
aF-3.9191458790007045
aF-2.3235229219993103
aF-5.427041658435745
aF-9.069128951042922
aF-3.6394074528865374
aF-2.904671942429504
aF-3.24161292624231
aF-3.9834745353898127
aF-4.906680801518754
aF-6.32921101109269
aF-10.139570362744337
aF-3.2593575867686
aF-8.070600120931795
aF-10.139570362744337
aF-10.32189191953829
aF-10.0595276550708
aF-10.32189191953829
aF-10.32189191953829
aF-10.32189191953829
aF-10.32189191953829
aF-10.226581739733966
aF-10.32189191953829
aF-10.32189191953829
aF-6.117199300147324
aF-1.7286455063366528
aa(lp22
F-3.2233310452552666
aF-6.420917206177191
aF-4.100245712103838
aF-7.849936511963423
aF-2.159872038937006
aF-6.272759461747544
aF-8.06124560563063
aF-2.9176346288435746
aF-2.7818812274241953
aF-9.91362969667512
aF-4.553218200331289
aF-4.723106359935612
aF-4.6004237176333325
aF-6.295977751849551
aF-2.9712314742494432
aF-3.8602178734319343
aF-7.016337495934382
aF-8.496563676888476
aF-2.8149441887434246
aF-2.1259624411625424
aF-3.25778723926116
aF-7.9500199705204055
aF-5.445568724659435
aF-10.383633325920856
aF-5.206354287749875
aF-10.047161089299642
aF-10.383633325920856
aF-10.383633325920856
aF-10.201311769126901
aF-10.121269061453365
aF-10.383633325920856
aF-10.28832314611653
aF-10.28832314611653
aF-10.383633325920856
aF-10.383633325920856
aF-10.383633325920856
aF-5.503106717171621
aF-0.9916299472805951
aa(lp23
F-3.172873345770995
aF-8.996658612821893
aF-5.914584829446337
aF-9.726173437552713
aF-2.3395649140478576
aF-7.235112922190334
aF-8.615291056292788
aF-1.1080160467977505
aF-2.3678380618198682
aF-10.719425210562996
aF-9.977487865833618
aF-4.422868529493637
aF-6.084696222333361
aF-7.256819200772197
aF-2.3375707583242713
aF-8.303511432261947
aF-10.719425210562996
aF-3.464964518679617
aF-3.6835406038703313
aF-4.041460525616863
aF-3.901157098082395
aF-9.689805793381838
aF-5.201169423649698
aF-10.131638545660877
aF-4.20575009482246
aF-7.985057701143413
aF-10.24942158131726
aF-10.719425210562996
aF-10.624115030758672
aF-10.719425210562996
aF-10.719425210562996
aF-10.719425210562996
aF-10.719425210562996
aF-10.719425210562996
aF-10.624115030758672
aF-10.719425210562996
aF-6.370438429967314
aF-1.5839053722445022
aa(lp24
F-3.6915140262569333
aF-3.734941319688952
aF-3.246279804975815
aF-4.021818563123445
aF-3.2822976513056967
aF-5.0180514445736115
aF-3.1943106878873024
aF-7.797197567359552
aF-3.7334327962470497
aF-9.44235356239573
aF-6.209037053372736
aF-2.258482847333279
aF-3.4121054606113757
aF-2.0906703250152505
aF-6.09724564738462
aF-3.101673643083316
aF-8.949877077297938
aF-1.906280575404387
aF-1.9731659645517738
aF-1.9659841413348773
aF-9.275299477732565
aF-6.790392827944565
aF-9.355342185406101
aF-7.318460258145062
aF-7.3743407165395185
aF-5.267966292500094
aF-9.537663742200056
aF-9.537663742200056
aF-9.44235356239573
aF-9.537663742200056
aF-9.44235356239573
aF-9.537663742200056
aF-9.537663742200056
aF-9.537663742200056
aF-9.537663742200056
aF-9.537663742200056
aF-8.343741273727622
aF-3.271222495137847
aa(lp25
F-2.470573564008821
aF-8.563465903746916
aF-8.563465903746916
aF-8.563465903746916
aF-0.5213773295222568
aF-8.563465903746916
aF-8.301101639279425
aF-8.563465903746916
aF-1.7453071585765352
aF-8.46815572394259
aF-7.975679238844797
aF-5.449950594536541
aF-8.563465903746916
aF-4.570784995301316
aF-2.7914019216743093
aF-8.563465903746916
aF-8.563465903746916
aF-6.2709311466063715
aF-4.409281341168798
aF-8.226993667125702
aF-6.2913400182375785
aF-8.381144346952961
aF-8.226993667125702
aF-8.563465903746916
aF-5.263932175861261
aF-8.563465903746916
aF-8.563465903746916
aF-8.381144346952961
aF-8.563465903746916
aF-8.563465903746916
aF-8.563465903746916
aF-8.563465903746916
aF-8.563465903746916
aF-8.563465903746916
aF-8.563465903746916
aF-8.563465903746916
aF-7.202489350611315
aF-3.1249519067055957
aa(lp26
F-1.5986012005294397
aF-7.849763738861909
aF-7.8757392252651695
aF-5.352118063296479
aF-1.893262314654567
aF-6.908155199003464
aF-8.294449560123354
aF-1.624139617166287
aF-1.7643302373307062
aF-9.115430112193184
aF-7.035988570513349
aF-5.485046864760857
aF-8.468802947268133
aF-3.2205265267911805
aF-2.5256286892879314
aF-8.33527155464361
aF-9.21074029199751
aF-4.572135329923181
aF-4.251398292288805
aF-5.705182895011111
aF-7.58149975226723
aF-9.21074029199751
aF-7.487973694256406
aF-9.21074029199751
aF-6.908155199003464
aF-9.028418735203555
aF-9.21074029199751
aF-9.21074029199751
aF-9.21074029199751
aF-9.21074029199751
aF-9.21074029199751
aF-9.21074029199751
aF-9.21074029199751
aF-9.21074029199751
aF-9.21074029199751
aF-9.21074029199751
aF-6.522892798212819
aF-2.1741521411724043
aa(lp27
F-2.267951720382237
aF-6.909453835617718
aF-2.0411504500992588
aF-6.909453835617718
aF-2.4750719706099087
aF-6.033985098263819
aF-6.909453835617718
aF-4.3292370060253935
aF-2.085148119712956
aF-6.909453835617718
aF-6.909453835617718
aF-6.5039887275095545
aF-6.909453835617718
aF-6.909453835617718
aF-4.467106800248514
aF-1.5099345885607145
aF-6.378825584555548
aF-6.814143655813393
aF-5.84474309862529
aF-1.8829451923651728
aF-4.3837251913094635
aF-4.367851842153173
aF-6.814143655813393
aF-4.484651109899423
aF-5.204705743379293
aF-6.909453835617718
aF-6.814143655813393
aF-6.814143655813393
aF-6.909453835617718
aF-6.909453835617718
aF-6.909453835617718
aF-6.909453835617718
aF-6.909453835617718
aF-6.909453835617718
aF-6.909453835617718
aF-6.909453835617718
aF-4.344504478156182
aF-2.568249195464092
aa(lp28
F-3.90911441120716
aF-6.156576480578405
aF-5.67408136343864
aF-6.196467809605706
aF-2.9283589507645553
aF-6.515648549116858
aF-7.2330884222458485
aF-8.011757776243956
aF-3.843985745467038
aF-9.041377193425113
aF-7.472761275511268
aF-4.771679743725152
aF-4.4574306438886495
aF-5.529831754594094
aF-2.229252145458227
aF-4.749548826669381
aF-9.041377193425113
aF-5.787134224719622
aF-3.152499235092233
aF-4.3336504191119305
aF-7.0672961674031045
aF-7.655082832305223
aF-6.43868750798073
aF-7.706376126692774
aF-9.041377193425113
aF-7.733044373774935
aF-9.041377193425113
aF-9.041377193425113
aF-9.041377193425113
aF-9.041377193425113
aF-9.041377193425113
aF-9.041377193425113
aF-9.041377193425113
aF-8.94606701362079
aF-9.041377193425113
aF-9.041377193425113
aF-4.813084658693274
aF-0.3832401496689
aa(lp29
F-2.55823792287355
aF-6.030204375423913
aF-6.030204375423913
aF-4.721871555773734
aF-0.9562813420917382
aF-6.030204375423913
aF-6.030204375423913
aF-3.23292304059376
aF-2.366642729294266
aF-6.030204375423913
aF-5.6937321388027
aF-3.9139488606213604
aF-4.042330027269567
aF-5.0369526024136295
aF-1.7633080480036623
aF-6.030204375423913
aF-6.030204375423913
aF-6.030204375423913
aF-5.847882818629958
aF-6.030204375423913
aF-3.1454036625772033
aF-5.934894195619588
aF-5.934894195619588
aF-6.030204375423913
aF-4.59511985013459
aF-3.8001899752647024
aF-6.030204375423913
aF-6.030204375423913
aF-5.934894195619588
aF-6.030204375423913
aF-6.030204375423913
aF-6.030204375423913
aF-6.030204375423913
aF-6.030204375423913
aF-6.030204375423913
aF-6.030204375423913
aF-5.442417710521793
aF-3.1969910313676966
aa(lp30
F-5.715052066914432
aF-5.715052066914432
aF-5.715052066914432
aF-5.715052066914432
aF-5.715052066914432
aF-4.406719247264253
aF-5.715052066914432
aF-5.715052066914432
aF-5.715052066914432
aF-5.715052066914432
aF-5.715052066914432
aF-5.715052066914432
aF-5.619741887110107
aF-5.619741887110107
aF-5.715052066914432
aF-5.715052066914432
aF-5.715052066914432
aF-5.715052066914432
aF-5.452687802446941
aF-5.452687802446941
aF-5.715052066914432
aF-5.715052066914432
aF-5.715052066914432
aF-5.715052066914432
aF-5.715052066914432
aF-5.715052066914432
aF-1.207494709793341
aF-3.2218466143117364
aF-3.1656068959888604
aF-3.5178274895782127
aF-3.5403003454302713
aF-3.3541980657964103
aF-3.3541980657964103
aF-3.442926181405095
aF-3.4326696812379054
aF-3.4326696812379054
aF-3.363676809750954
aF-1.3392950452541457
aa(lp31
F-6.056964144725104
aF-6.056964144725104
aF-5.62618122863265
aF-6.13700685239864
aF-4.632929455622366
aF-4.690087869462315
aF-6.319328409192595
aF-6.319328409192595
aF-6.319328409192595
aF-6.319328409192595
aF-6.319328409192595
aF-6.319328409192595
aF-6.319328409192595
aF-6.319328409192595
aF-6.319328409192595
aF-6.319328409192595
aF-6.319328409192595
aF-6.319328409192595
aF-6.056964144725104
aF-6.13700685239864
aF-6.319328409192595
aF-6.319328409192595
aF-6.319328409192595
aF-6.319328409192595
aF-6.319328409192595
aF-6.22401822938827
aF-2.5651294889580156
aF-2.895065754599443
aF-2.7275106679217895
aF-3.023491543188266
aF-3.034664843786391
aF-2.997895995999302
aF-2.660908162563367
aF-2.3642459143040018
aF-1.5435719226289697
aF-2.311995223960124
aF-3.8945256834743
aF-2.381637657015871
aa(lp32
F-5.596737038633456
aF-5.69204721843778
aF-5.69204721843778
aF-5.429682953970289
aF-5.5097256616438255
aF-4.56064510694668
aF-5.69204721843778
aF-5.5097256616438255
aF-5.69204721843778
aF-5.69204721843778
aF-5.69204721843778
aF-5.69204721843778
aF-5.69204721843778
aF-5.286582110329616
aF-5.69204721843778
aF-5.69204721843778
aF-5.69204721843778
aF-5.69204721843778
aF-5.429682953970289
aF-5.222043589192045
aF-5.69204721843778
aF-5.69204721843778
aF-5.69204721843778
aF-5.69204721843778
aF-5.69204721843778
aF-5.69204721843778
aF-2.1834913184551255
aF-2.582986259576786
aF-2.785146158590405
aF-2.7581903486018766
aF-2.919458496197999
aF-2.7165176522013086
aF-2.8184825788579966
aF-2.876638499015071
aF-2.7319421225269402
aF-2.8947658836076275
aF-3.3032844292026824
aF-1.6542730077040737
aa(lp33
F-5.531015130667058
aF-5.531015130667058
aF-5.531015130667058
aF-5.268650866199567
aF-5.531015130667058
aF-4.367864320861377
aF-5.531015130667058
aF-5.435704950862733
aF-5.531015130667058
aF-5.531015130667058
aF-5.531015130667058
aF-5.531015130667058
aF-5.531015130667058
aF-5.531015130667058
aF-5.531015130667058
aF-5.531015130667058
aF-5.531015130667058
aF-4.889161244494663
aF-5.531015130667058
aF-5.268650866199567
aF-5.531015130667058
aF-5.531015130667058
aF-5.531015130667058
aF-5.531015130667058
aF-5.531015130667058
aF-5.531015130667058
aF-2.3655400825259725
aF-2.7216124353045603
aF-2.4912659716962926
aF-2.9737878192994316
aF-2.7398500228543416
aF-2.8431676368823675
aF-2.674544924446575
aF-2.829653917715645
aF-2.777354418312796
aF-2.790175106741857
aF-3.198871235431468
aF-1.7536670285655136
aa(lp34
F-5.507767590730244
aF-5.507767590730244
aF-5.507767590730244
aF-5.412457410925919
aF-5.507767590730244
aF-4.283992159108128
aF-5.507767590730244
aF-5.507767590730244
aF-5.507767590730244
aF-5.507767590730244
aF-5.507767590730244
aF-5.507767590730244
aF-5.507767590730244
aF-5.507767590730244
aF-5.507767590730244
aF-5.507767590730244
aF-5.507767590730244
aF-5.507767590730244
aF-5.507767590730244
aF-4.919980925828125
aF-5.507767590730244
aF-5.507767590730244
aF-5.507767590730244
aF-5.412457410925919
aF-5.507767590730244
aF-5.507767590730244
aF-2.537353125160543
aF-2.6570610892265107
aF-2.6285691334322046
aF-2.6398686886861378
aF-2.8199200969455536
aF-2.9125128837733785
aF-2.7541068783759814
aF-2.7541068783759814
aF-2.680453968801216
aF-2.686388704321031
aF-3.256475792123749
aF-1.7629805046780116
aa(lp35
F-5.3986150878634005
aF-5.3986150878634005
aF-5.3986150878634005
aF-5.3986150878634005
aF-5.3986150878634005
aF-4.61015772749913
aF-5.3986150878634005
aF-5.3986150878634005
aF-5.3986150878634005
aF-5.3986150878634005
aF-5.3986150878634005
aF-5.3986150878634005
aF-5.3986150878634005
aF-5.3986150878634005
aF-5.3986150878634005
aF-5.3986150878634005
aF-5.3986150878634005
aF-5.3986150878634005
aF-5.3986150878634005
aF-5.2162935310694465
aF-5.3986150878634005
aF-5.3986150878634005
aF-5.3986150878634005
aF-5.3986150878634005
aF-5.303304908059076
aF-5.3986150878634005
aF-2.167810692129926
aF-2.6642475784438173
aF-2.5595366243547866
aF-2.697253874911987
aF-2.71076759407871
aF-3.190340674340596
aF-3.3067510261850077
aF-2.841387776495774
aF-2.956268052494196
aF-2.7313868812814457
aF-3.1368519893896103
aF-1.6948470212557136
aa(lp36
F-5.212462345514467
aF-5.307772525318792
aF-5.307772525318792
aF-5.045408260851301
aF-5.307772525318792
aF-3.8967855516085295
aF-5.307772525318792
aF-5.307772525318792
aF-5.307772525318792
aF-5.307772525318792
aF-5.307772525318792
aF-5.307772525318792
aF-5.307772525318792
aF-5.307772525318792
aF-5.307772525318792
aF-5.307772525318792
aF-5.307772525318792
aF-5.307772525318792
aF-5.212462345514467
aF-4.777144274256622
aF-5.307772525318792
aF-5.307772525318792
aF-5.307772525318792
aF-5.307772525318792
aF-5.307772525318792
aF-5.307772525318792
aF-2.2443816032909862
aF-2.7125178183619263
aF-2.8481836835150816
aF-2.806336573579581
aF-2.9469185242007705
aF-2.7050828398744082
aF-2.856767427206473
aF-3.1217212485806978
aF-3.0994981117959877
aF-2.8312341252013082
aF-3.0564807267122966
aF-1.6754634226932499
aa(lp37
F-5.264760583019194
aF-5.264760583019194
aF-5.264760583019194
aF-5.264760583019194
aF-5.264760583019194
aF-4.43185146008409
aF-5.264760583019194
aF-5.264760583019194
aF-5.264760583019194
aF-5.264760583019194
aF-5.264760583019194
aF-5.264760583019194
aF-5.264760583019194
aF-5.264760583019194
aF-5.264760583019194
aF-5.264760583019194
aF-5.264760583019194
aF-5.264760583019194
aF-5.169450403214869
aF-4.794756953773458
aF-5.264760583019194
aF-5.264760583019194
aF-5.264760583019194
aF-5.264760583019194
aF-5.264760583019194
aF-5.264760583019194
aF-2.755161320640822
aF-2.9621754900251482
aF-3.013468784412699
aF-3.0347461828599838
aF-3.26328058280907
aF-2.796661051547575
aF-2.5633993700677804
aF-2.4082903767987105
aF-2.5567103819169836
aF-2.684543753426869
aF-3.013468784412699
aF-1.706559452547374
aa(lp38
F-5.535758222563071
aF-5.535758222563071
aF-5.535758222563071
aF-5.440448042758746
aF-5.535758222563071
aF-4.40435611107197
aF-5.535758222563071
aF-5.535758222563071
aF-5.535758222563071
aF-5.535758222563071
aF-5.535758222563071
aF-5.535758222563071
aF-5.535758222563071
aF-5.535758222563071
aF-5.535758222563071
aF-5.535758222563071
aF-5.535758222563071
aF-5.535758222563071
aF-5.440448042758746
aF-5.199285985941858
aF-5.535758222563071
aF-5.535758222563071
aF-5.535758222563071
aF-5.535758222563071
aF-5.535758222563071
aF-5.353436665769117
aF-2.4266972637020765
aF-2.4311715440969976
aF-2.85473669384878
aF-2.918362389728992
aF-2.875498685297209
aF-2.6565597652650315
aF-2.31688239769487
aF-2.6125966418439153
aF-2.903869382426425
aF-2.491235784839648
aF-3.2950485332871127
aF-2.0794415416798357
aa(lp39
F-5.294309345150498
aF-5.294309345150498
aF-5.294309345150498
aF-5.294309345150498
aF-5.294309345150498
aF-4.013375499688434
aF-5.294309345150498
aF-5.294309345150498
aF-5.294309345150498
aF-5.294309345150498
aF-5.294309345150498
aF-5.294309345150498
aF-5.294309345150498
aF-5.294309345150498
aF-5.294309345150498
aF-5.294309345150498
aF-5.294309345150498
aF-5.294309345150498
aF-5.294309345150498
aF-4.957837108529285
aF-5.294309345150498
aF-5.294309345150498
aF-5.294309345150498
aF-5.294309345150498
aF-5.294309345150498
aF-5.294309345150498
aF-2.1897226666844247
aF-1.9947756172648428
aF-2.6769135123164185
aF-2.9719216248602724
aF-3.0970847678142785
aF-3.0860349316276934
aF-2.94293408798702
aF-3.3202283191284883
aF-3.142547141891036
aF-2.952503539003171
aF-2.991724252156452
aF-1.8254533150145276
aa(lp40
F-2.7954815696981816
aF-3.6111488861987793
aF-3.3543887240855845
aF-3.7631650934974052
aF-4.0393054055090145
aF-3.4478823729635115
aF-4.287346508444951
aF-3.679683987020836
aF-3.270412250791109
aF-5.174649703445854
aF-5.164497331981837
aF-3.8597198285339345
aF-3.848820538075899
aF-4.010224196208172
aF-4.016613994306944
aF-3.79603783849798
aF-6.66857472875811
aF-3.8735131506662706
aF-2.9550026620538024
aF-2.3602190987850724
aF-5.08678834765452
aF-5.377590547442544
aF-3.4943159693787162
aF-7.361721909318056
aF-5.1248881938867905
aF-6.58156335176848
aF-7.361721909318056
aF-4.471350151421891
aF-4.892082731660844
aF-5.237828605067386
aF-5.19526899064859
aF-5.164497331981837
aF-5.752283996883955
aF-6.293881279316699
aF-6.122031022390041
aF-6.540741357248225
aF-1.051968934009512
aF-5.716565914281876
aa(lp41
F-2.158349739071713
aF-3.1358772832026656
aF-3.208864078566583
aF-3.5591466171947355
aF-3.8372041494202622
aF-3.2720917750333123
aF-4.1360182849212626
aF-2.788515062950306
aF-2.757219813464933
aF-5.689767291494774
aF-5.275588356702086
aF-3.7836977476208795
aF-3.3567150001803667
aF-3.8164295888127175
aF-2.6483208998058694
aF-3.3716358632218433
aF-6.241565542637502
aF-3.6855374657486015
aF-2.7073076423263895
aF-1.8655716870714654
aF-4.476420750019639
aF-4.922522331266188
aF-2.8080580081486017
aF-7.7899708246230395
aF-4.70583924880457
aF-8.509093491586246
aF-10.555590877546727
aF-5.776156197253598
aF-6.7747739281071055
aF-6.9679651571379635
aF-6.936696850832494
aF-7.314736145959751
aF-8.12457999596386
aF-8.60440367139057
aF-8.647421056474261
aF-8.523551574761475
aF-9.90018402496963
aF-3.393940141865141
aas.